; Function Attrs: mustprogress nounwind uwtable
define internal fastcc noundef range(i32 0, 111) i32 @_ZL36check_permitted_subclasses_attributeP13InstanceKlassS0_(ptr noundef %0, ptr nocapture noundef readonly %1) unnamed_addr #0 {
  %3 = tail call align 8 ptr @llvm.threadlocal.address.p0(ptr align 8 @_ZN6Thread12_thr_currentE)
  %4 = load ptr, ptr %3, align 8
  %5 = getelementptr inbounds i8, ptr %4, i64 800
  %6 = load ptr, ptr %5, align 8
  %7 = getelementptr inbounds i8, ptr %6, i64 24
  %8 = load ptr, ptr %7, align 8
  %9 = getelementptr inbounds i8, ptr %6, i64 32
  %10 = load ptr, ptr %9, align 8
  %11 = getelementptr inbounds i8, ptr %6, i64 40
  %12 = load ptr, ptr %11, align 8
  %13 = getelementptr inbounds i8, ptr %6, i64 8
  %14 = load i64, ptr %13, align 8
  %15 = getelementptr inbounds i8, ptr %0, i64 256
  %16 = load ptr, ptr %15, align 8
  %17 = getelementptr inbounds i8, ptr %1, i64 256
  %18 = load ptr, ptr %17, align 8
  %19 = tail call fastcc noundef i32 @_ZL22check_attribute_arraysPKcP13InstanceKlassS2_P5ArrayItES5_(ptr noundef nonnull @.str.222, ptr noundef nonnull %0, ptr noundef nonnull %1, ptr noundef %16, ptr noundef %18)
  %20 = load ptr, ptr %8, align 8
  %.not.i.i.i.i = icmp eq ptr %20, null
  br i1 %.not.i.i.i.i, label %22, label %21

21:                                               ; preds = %2
  tail call void @_ZN5Arena17set_size_in_bytesEm(ptr noundef nonnull align 8 dereferenceable(48) %6, i64 noundef %14) #19
  tail call void @_ZN5Chunk9next_chopEPS_(ptr noundef nonnull %8) #19
  br label %22

22:                                               ; preds = %21, %2
  %23 = load ptr, ptr %9, align 8
  %.not8.i.i.i.i = icmp eq ptr %23, %10
  br i1 %.not8.i.i.i.i, label %_ZN12ResourceMarkD2Ev.exit, label %24

24:                                               ; preds = %22
  store ptr %8, ptr %7, align 8
  store ptr %10, ptr %9, align 8
  store ptr %12, ptr %11, align 8
  br label %_ZN12ResourceMarkD2Ev.exit

_ZN12ResourceMarkD2Ev.exit:                       ; preds = %22, %24
  ret i32 %19
}